; Function Attrs: mustprogress nounwind uwtable
define void @_ZN7glslang13TParseContext22inductiveLoopBodyCheckEP11TIntermNodexRNS_12TSymbolTableE(ptr noundef nonnull align 8 dereferenceable(30232) %0, ptr noundef %1, i64 noundef %2, ptr noundef nonnull align 8 dereferenceable(40) %3) local_unnamed_addr #0 align 2 {
  %5 = alloca %"class.glslang::TInductiveTraverser", align 8
  %6 = getelementptr inbounds i8, ptr %5, i64 8
  store i8 1, ptr %6, align 8
  %7 = getelementptr inbounds i8, ptr %5, i64 9
  %8 = getelementptr inbounds i8, ptr %5, i64 24
  call void @llvm.memset.p0.i64(ptr noundef nonnull align 1 dereferenceable(11) %7, i8 0, i64 11, i1 false)
  %9 = tail call noundef nonnull align 8 dereferenceable(96) ptr @_ZN7glslang22GetThreadPoolAllocatorEv() #6
  store ptr %9, ptr %8, align 8
  %10 = getelementptr inbounds i8, ptr %5, i64 32
  call void @llvm.memset.p0.i64(ptr noundef nonnull align 8 dereferenceable(24) %10, i8 0, i64 24, i1 false)
  store ptr getelementptr inbounds inrange(-16, 88) (i8, ptr @_ZTVN7glslang19TInductiveTraverserE, i64 16), ptr %5, align 8
  %11 = getelementptr inbounds i8, ptr %5, i64 56
  store i64 %2, ptr %11, align 8
  %12 = getelementptr inbounds i8, ptr %5, i64 64
  store ptr %3, ptr %12, align 8
  %13 = getelementptr inbounds i8, ptr %5, i64 72
  store i8 0, ptr %13, align 8
  %14 = icmp eq ptr %1, null
  br i1 %14, label %26, label %15

15:                                               ; preds = %4
  %16 = load ptr, ptr %1, align 8
  %17 = getelementptr inbounds i8, ptr %16, i64 16
  %18 = load ptr, ptr %17, align 8
  call void %18(ptr noundef nonnull align 8 dereferenceable(32) %1, ptr noundef nonnull %5) #6
  %19 = load i8, ptr %13, align 8
  %20 = trunc i8 %19 to i1
  br i1 %20, label %21, label %26

21:                                               ; preds = %15
  %22 = getelementptr inbounds i8, ptr %5, i64 80
  %23 = load ptr, ptr %0, align 8
  %24 = getelementptr inbounds i8, ptr %23, i64 344
  %25 = load ptr, ptr %24, align 8
  call void (ptr, ptr, ptr, ptr, ptr, ...) %25(ptr noundef nonnull align 8 dereferenceable(1280) %0, ptr noundef nonnull align 8 dereferenceable(24) %22, ptr noundef nonnull @.str, ptr noundef nonnull @.str.1, ptr noundef nonnull @.str.2) #6
  br label %26

26:                                               ; preds = %15, %21, %4
  ret void
}